target datalayout = "e-m:e-p270:32:32-p271:32:32-p272:64:64-i64:64-i128:128-f80:128-n8:16:32:64-S128"
target triple = "x86_64-unknown-linux-gnu"

%struct.UResourceBundle = type { ptr, ptr, ptr, ptr, ptr, [64 x i8], i32, i32, i8, i8, i32, i32, i32, i32 }
%struct.UResourceDataEntry = type { ptr, ptr, ptr, ptr, ptr, %struct.ResourceData, [3 x i8], i32, i32 }
%struct.ResourceData = type { ptr, ptr, ptr, ptr, i32, i32, ptr, i32, i32, i8, i8, i8, i8 }
%"class.icu_75::ResourceTracer" = type { i8 }

@.str.12 = private unnamed_addr constant [7 x i8] c"string\00", align 1

; Function Attrs: mustprogress nounwind uwtable
define linkonce_odr void @_ZNK6icu_7514ResourceTracer5traceEPKc(ptr noundef nonnull align 1 dereferenceable(1) %this, ptr noundef %0) #0 comdat align 2 {
entry:
  %this.addr = alloca ptr, align 8
  %.addr = alloca ptr, align 8
  store ptr %this, ptr %this.addr, align 8
  store ptr %0, ptr %.addr, align 8
  ret void
}

; Function Attrs: mustprogress uwtable
define linkonce_odr noundef ptr @_ZN6icu_7513res_getStringERKNS_14ResourceTracerEPK12ResourceDatajPi(ptr noundef nonnull align 1 dereferenceable(1) %traceInfo, ptr noundef %pResData, i32 noundef %res, ptr noundef %pLength) #1 comdat {
entry:
  %traceInfo.addr = alloca ptr, align 8
  %pResData.addr = alloca ptr, align 8
  %res.addr = alloca i32, align 4
  %pLength.addr = alloca ptr, align 8
  store ptr %traceInfo, ptr %traceInfo.addr, align 8
  store ptr %pResData, ptr %pResData.addr, align 8
  store i32 %res, ptr %res.addr, align 4
  store ptr %pLength, ptr %pLength.addr, align 8
  %0 = load ptr, ptr %traceInfo.addr, align 8
  call void @_ZNK6icu_7514ResourceTracer5traceEPKc(ptr noundef nonnull align 1 dereferenceable(1) %0, ptr noundef @.str.12)
  %1 = load ptr, ptr %pResData.addr, align 8
  %2 = load i32, ptr %res.addr, align 4
  %3 = load ptr, ptr %pLength.addr, align 8
  %call = call ptr @res_getStringNoTrace_75(ptr noundef %1, i32 noundef %2, ptr noundef %3)
  ret ptr %call
}

; Function Attrs: mustprogress nounwind uwtable
define linkonce_odr noundef nonnull align 8 dereferenceable(64) ptr @_ZNK15UResourceBundle10getResDataEv(ptr noundef nonnull align 8 dereferenceable(136) %this) #0 comdat align 2 {
entry:
  %this.addr = alloca ptr, align 8
  store ptr %this, ptr %this.addr, align 8
  %this1 = load ptr, ptr %this.addr, align 8
  %fData = getelementptr inbounds %struct.UResourceBundle, ptr %this1, i32 0, i32 1
  %0 = load ptr, ptr %fData, align 8
  %fData2 = getelementptr inbounds %struct.UResourceDataEntry, ptr %0, i32 0, i32 5
  ret ptr %fData2
}

; Function Attrs: mustprogress nounwind uwtable
define linkonce_odr void @_ZN6icu_7514ResourceTracerC2EPKv(ptr noundef nonnull align 1 dereferenceable(1) %this, ptr noundef %0) unnamed_addr #0 comdat align 2 {
entry:
  %this.addr = alloca ptr, align 8
  %.addr = alloca ptr, align 8
  store ptr %this, ptr %this.addr, align 8
  store ptr %0, ptr %.addr, align 8
  ret void
}

; Function Attrs: mustprogress nounwind uwtable
define internal noundef signext i8 @_ZL9U_FAILURE10UErrorCode(i32 noundef %code) #0 {
entry:
  %code.addr = alloca i32, align 4
  store i32 %code, ptr %code.addr, align 4
  %0 = load i32, ptr %code.addr, align 4
  %cmp = icmp sgt i32 %0, 0
  %conv = zext i1 %cmp to i8
  ret i8 %conv
}

; Function Attrs: mustprogress uwtable
define ptr @ures_getNextString_75(ptr noundef %resB, ptr noundef %len, ptr noundef %key, ptr noundef %status) #1 {
entry:
  %retval = alloca ptr, align 8
  %resB.addr = alloca ptr, align 8
  %len.addr = alloca ptr, align 8
  %key.addr = alloca ptr, align 8
  %status.addr = alloca ptr, align 8
  %r = alloca i32, align 4
  %ref.tmp = alloca %"class.icu_75::ResourceTracer", align 1
  store ptr %resB, ptr %resB.addr, align 8
  store ptr %len, ptr %len.addr, align 8
  store ptr %key, ptr %key.addr, align 8
  store ptr %status, ptr %status.addr, align 8
  store i32 -1, ptr %r, align 4
  %0 = load ptr, ptr %status.addr, align 8
  %cmp = icmp eq ptr %0, null
  br i1 %cmp, label %if.then, label %lor.lhs.false

lor.lhs.false:                                    ; preds = %entry
  %1 = load ptr, ptr %status.addr, align 8
  %2 = load i32, ptr %1, align 4
  %call = call noundef signext i8 @_ZL9U_FAILURE10UErrorCode(i32 noundef %2)
  %tobool = icmp ne i8 %call, 0
  br i1 %tobool, label %if.then, label %if.end

if.then:                                          ; preds = %lor.lhs.false, %entry
  store ptr null, ptr %retval, align 8
  br label %return

if.end:                                           ; preds = %lor.lhs.false
  %3 = load ptr, ptr %resB.addr, align 8
  %cmp1 = icmp eq ptr %3, null
  br i1 %cmp1, label %if.then2, label %if.end3

if.then2:                                         ; preds = %if.end
  %4 = load ptr, ptr %status.addr, align 8
  store i32 1, ptr %4, align 4
  store ptr null, ptr %retval, align 8
  br label %return

if.end3:                                          ; preds = %if.end
  %5 = load ptr, ptr %resB.addr, align 8
  %fIndex = getelementptr inbounds %struct.UResourceBundle, ptr %5, i32 0, i32 12
  %6 = load i32, ptr %fIndex, align 4
  %7 = load ptr, ptr %resB.addr, align 8
  %fSize = getelementptr inbounds %struct.UResourceBundle, ptr %7, i32 0, i32 13
  %8 = load i32, ptr %fSize, align 8
  %sub = sub nsw i32 %8, 1
  %cmp4 = icmp eq i32 %6, %sub
  br i1 %cmp4, label %if.then5, label %if.else

if.then5:                                         ; preds = %if.end3
  %9 = load ptr, ptr %status.addr, align 8
  store i32 8, ptr %9, align 4
  br label %if.end39

if.else:                                          ; preds = %if.end3
  %10 = load ptr, ptr %resB.addr, align 8
  %fIndex6 = getelementptr inbounds %struct.UResourceBundle, ptr %10, i32 0, i32 12
  %11 = load i32, ptr %fIndex6, align 4
  %inc = add nsw i32 %11, 1
  store i32 %inc, ptr %fIndex6, align 4
  %12 = load ptr, ptr %resB.addr, align 8
  %fRes = getelementptr inbounds %struct.UResourceBundle, ptr %12, i32 0, i32 7
  %13 = load i32, ptr %fRes, align 4
  %shr = lshr i32 %13, 28
  switch i32 %shr, label %sw.default [
    i32 0, label %sw.bb
    i32 6, label %sw.bb
    i32 2, label %sw.bb10
    i32 5, label %sw.bb10
    i32 4, label %sw.bb10
    i32 8, label %sw.bb21
    i32 9, label %sw.bb21
    i32 3, label %sw.bb34
    i32 7, label %sw.bb38
    i32 1, label %sw.bb38
    i32 14, label %sw.bb38
  ]

sw.bb:                                            ; preds = %if.else, %if.else
  %14 = load ptr, ptr %resB.addr, align 8
  call void @_ZN6icu_7514ResourceTracerC2EPKv(ptr noundef nonnull align 1 dereferenceable(1) %ref.tmp, ptr noundef %14)
  %15 = load ptr, ptr %resB.addr, align 8
  %call7 = call noundef nonnull align 8 dereferenceable(64) ptr @_ZNK15UResourceBundle10getResDataEv(ptr noundef nonnull align 8 dereferenceable(136) %15)
  %16 = load ptr, ptr %resB.addr, align 8
  %fRes8 = getelementptr inbounds %struct.UResourceBundle, ptr %16, i32 0, i32 7
  %17 = load i32, ptr %fRes8, align 4
  %18 = load ptr, ptr %len.addr, align 8
  %call9 = call noundef ptr @_ZN6icu_7513res_getStringERKNS_14ResourceTracerEPK12ResourceDatajPi(ptr noundef nonnull align 1 dereferenceable(1) %ref.tmp, ptr noundef %call7, i32 noundef %17, ptr noundef %18)
  store ptr %call9, ptr %retval, align 8
  br label %return

sw.bb10:                                          ; preds = %if.else, %if.else, %if.else
  %19 = load ptr, ptr %resB.addr, align 8
  %call11 = call noundef nonnull align 8 dereferenceable(64) ptr @_ZNK15UResourceBundle10getResDataEv(ptr noundef nonnull align 8 dereferenceable(136) %19)
  %20 = load ptr, ptr %resB.addr, align 8
  %fRes12 = getelementptr inbounds %struct.UResourceBundle, ptr %20, i32 0, i32 7
  %21 = load i32, ptr %fRes12, align 4
  %22 = load ptr, ptr %resB.addr, align 8
  %fIndex13 = getelementptr inbounds %struct.UResourceBundle, ptr %22, i32 0, i32 12
  %23 = load i32, ptr %fIndex13, align 4
  %24 = load ptr, ptr %key.addr, align 8
  %call14 = call i32 @res_getTableItemByIndex_75(ptr noundef %call11, i32 noundef %21, i32 noundef %23, ptr noundef %24)
  store i32 %call14, ptr %r, align 4
  %25 = load i32, ptr %r, align 4
  %cmp15 = icmp eq i32 %25, -1
  br i1 %cmp15, label %land.lhs.true, label %if.end18

land.lhs.true:                                    ; preds = %sw.bb10
  %26 = load ptr, ptr %resB.addr, align 8
  %fHasFallback = getelementptr inbounds %struct.UResourceBundle, ptr %26, i32 0, i32 8
  %27 = load i8, ptr %fHasFallback, align 8
  %tobool16 = icmp ne i8 %27, 0
  br i1 %tobool16, label %if.then17, label %if.end18

if.then17:                                        ; preds = %land.lhs.true
  br label %if.end18

if.end18:                                         ; preds = %if.then17, %land.lhs.true, %sw.bb10
  %28 = load ptr, ptr %resB.addr, align 8
  %29 = load i32, ptr %r, align 4
  %30 = load ptr, ptr %resB.addr, align 8
  %fIndex19 = getelementptr inbounds %struct.UResourceBundle, ptr %30, i32 0, i32 12
  %31 = load i32, ptr %fIndex19, align 4
  %32 = load ptr, ptr %len.addr, align 8
  %33 = load ptr, ptr %status.addr, align 8
  %call20 = call noundef ptr @_ZL23ures_getStringWithAliasPK15UResourceBundlejiPiP10UErrorCode(ptr noundef %28, i32 noundef %29, i32 noundef %31, ptr noundef %32, ptr noundef %33)
  store ptr %call20, ptr %retval, align 8
  br label %return

sw.bb21:                                          ; preds = %if.else, %if.else
  %34 = load ptr, ptr %resB.addr, align 8
  %call22 = call noundef nonnull align 8 dereferenceable(64) ptr @_ZNK15UResourceBundle10getResDataEv(ptr noundef nonnull align 8 dereferenceable(136) %34)
  %35 = load ptr, ptr %resB.addr, align 8
  %fRes23 = getelementptr inbounds %struct.UResourceBundle, ptr %35, i32 0, i32 7
  %36 = load i32, ptr %fRes23, align 4
  %37 = load ptr, ptr %resB.addr, align 8
  %fIndex24 = getelementptr inbounds %struct.UResourceBundle, ptr %37, i32 0, i32 12
  %38 = load i32, ptr %fIndex24, align 4
  %call25 = call i32 @res_getArrayItem_75(ptr noundef %call22, i32 noundef %36, i32 noundef %38)
  store i32 %call25, ptr %r, align 4
  %39 = load i32, ptr %r, align 4
  %cmp26 = icmp eq i32 %39, -1
  br i1 %cmp26, label %land.lhs.true27, label %if.end31

land.lhs.true27:                                  ; preds = %sw.bb21
  %40 = load ptr, ptr %resB.addr, align 8
  %fHasFallback28 = getelementptr inbounds %struct.UResourceBundle, ptr %40, i32 0, i32 8
  %41 = load i8, ptr %fHasFallback28, align 8
  %tobool29 = icmp ne i8 %41, 0
  br i1 %tobool29, label %if.then30, label %if.end31

if.then30:                                        ; preds = %land.lhs.true27
  br label %if.end31

if.end31:                                         ; preds = %if.then30, %land.lhs.true27, %sw.bb21
  %42 = load ptr, ptr %resB.addr, align 8
  %43 = load i32, ptr %r, align 4
  %44 = load ptr, ptr %resB.addr, align 8
  %fIndex32 = getelementptr inbounds %struct.UResourceBundle, ptr %44, i32 0, i32 12
  %45 = load i32, ptr %fIndex32, align 4
  %46 = load ptr, ptr %len.addr, align 8
  %47 = load ptr, ptr %status.addr, align 8
  %call33 = call noundef ptr @_ZL23ures_getStringWithAliasPK15UResourceBundlejiPiP10UErrorCode(ptr noundef %42, i32 noundef %43, i32 noundef %45, ptr noundef %46, ptr noundef %47)
  store ptr %call33, ptr %retval, align 8
  br label %return

sw.bb34:                                          ; preds = %if.else
  %48 = load ptr, ptr %resB.addr, align 8
  %49 = load ptr, ptr %resB.addr, align 8
  %fRes35 = getelementptr inbounds %struct.UResourceBundle, ptr %49, i32 0, i32 7
  %50 = load i32, ptr %fRes35, align 4
  %51 = load ptr, ptr %resB.addr, align 8
  %fIndex36 = getelementptr inbounds %struct.UResourceBundle, ptr %51, i32 0, i32 12
  %52 = load i32, ptr %fIndex36, align 4
  %53 = load ptr, ptr %len.addr, align 8
  %54 = load ptr, ptr %status.addr, align 8
  %call37 = call noundef ptr @_ZL23ures_getStringWithAliasPK15UResourceBundlejiPiP10UErrorCode(ptr noundef %48, i32 noundef %50, i32 noundef %52, ptr noundef %53, ptr noundef %54)
  store ptr %call37, ptr %retval, align 8
  br label %return

sw.bb38:                                          ; preds = %if.else, %if.else, %if.else
  %55 = load ptr, ptr %status.addr, align 8
  store i32 17, ptr %55, align 4
  br label %sw.default

sw.default:                                       ; preds = %sw.bb38, %if.else
  store ptr null, ptr %retval, align 8
  br label %return

if.end39:                                         ; preds = %if.then5
  store ptr null, ptr %retval, align 8
  br label %return

return:                                           ; preds = %if.end39, %sw.default, %sw.bb34, %if.end31, %if.end18, %sw.bb, %if.then2, %if.then
  %56 = load ptr, ptr %retval, align 8
  ret ptr %56
}