; Function Attrs: mustprogress uwtable
define noundef ptr @ures_getNextString_75(ptr noundef %resB, ptr noundef %len, ptr noundef %key, ptr noundef %status) local_unnamed_addr #1 {
entry:
  %cmp = icmp eq ptr %status, null
  br i1 %cmp, label %return, label %lor.lhs.false

lor.lhs.false:                                    ; preds = %entry
  %0 = load i32, ptr %status, align 4
  %cmp.i = icmp slt i32 %0, 1
  br i1 %cmp.i, label %if.end, label %return

if.end:                                           ; preds = %lor.lhs.false
  %cmp1 = icmp eq ptr %resB, null
  br i1 %cmp1, label %if.then2, label %if.end3

if.then2:                                         ; preds = %if.end
  store i32 1, ptr %status, align 4
  br label %return

if.end3:                                          ; preds = %if.end
  %fIndex = getelementptr inbounds i8, ptr %resB, i64 124
  %1 = load i32, ptr %fIndex, align 4
  %fSize = getelementptr inbounds i8, ptr %resB, i64 128
  %2 = load i32, ptr %fSize, align 8
  %sub = add nsw i32 %2, -1
  %cmp4 = icmp eq i32 %1, %sub
  br i1 %cmp4, label %if.then5, label %if.else

if.then5:                                         ; preds = %if.end3
  store i32 8, ptr %status, align 4
  br label %return

if.else:                                          ; preds = %if.end3
  %inc = add nsw i32 %1, 1
  store i32 %inc, ptr %fIndex, align 4
  %fRes = getelementptr inbounds i8, ptr %resB, i64 108
  %3 = load i32, ptr %fRes, align 4
  %shr = lshr i32 %3, 28
  switch i32 %shr, label %return [
    i32 0, label %sw.bb
    i32 6, label %sw.bb
    i32 2, label %sw.bb10
    i32 5, label %sw.bb10
    i32 4, label %sw.bb10
    i32 8, label %sw.bb21
    i32 9, label %sw.bb21
    i32 3, label %sw.bb34
    i32 7, label %sw.bb38
    i32 1, label %sw.bb38
    i32 14, label %sw.bb38
  ]

sw.bb:                                            ; preds = %if.else, %if.else
  %fData.i = getelementptr inbounds i8, ptr %resB, i64 8
  %4 = load ptr, ptr %fData.i, align 8
  %fData2.i = getelementptr inbounds i8, ptr %4, i64 40
  %call.i = tail call noundef ptr @res_getStringNoTrace_75(ptr noundef nonnull %fData2.i, i32 noundef %3, ptr noundef %len)
  br label %return

sw.bb10:                                          ; preds = %if.else, %if.else, %if.else
  %fData.i34 = getelementptr inbounds i8, ptr %resB, i64 8
  %5 = load ptr, ptr %fData.i34, align 8
  %fData2.i35 = getelementptr inbounds i8, ptr %5, i64 40
  %call14 = tail call i32 @res_getTableItemByIndex_75(ptr noundef nonnull %fData2.i35, i32 noundef %3, i32 noundef %inc, ptr noundef %key)
  %6 = load i32, ptr %fIndex, align 4
  %call20 = tail call fastcc noundef ptr @_ZL23ures_getStringWithAliasPK15UResourceBundlejiPiP10UErrorCode(ptr noundef nonnull %resB, i32 noundef %call14, i32 noundef %6, ptr noundef %len, ptr noundef nonnull %status)
  br label %return

sw.bb21:                                          ; preds = %if.else, %if.else
  %fData.i36 = getelementptr inbounds i8, ptr %resB, i64 8
  %7 = load ptr, ptr %fData.i36, align 8
  %fData2.i37 = getelementptr inbounds i8, ptr %7, i64 40
  %call25 = tail call i32 @res_getArrayItem_75(ptr noundef nonnull %fData2.i37, i32 noundef %3, i32 noundef %inc)
  %8 = load i32, ptr %fIndex, align 4
  %call33 = tail call fastcc noundef ptr @_ZL23ures_getStringWithAliasPK15UResourceBundlejiPiP10UErrorCode(ptr noundef nonnull %resB, i32 noundef %call25, i32 noundef %8, ptr noundef %len, ptr noundef nonnull %status)
  br label %return

sw.bb34:                                          ; preds = %if.else
  %call37 = tail call fastcc noundef ptr @_ZL23ures_getStringWithAliasPK15UResourceBundlejiPiP10UErrorCode(ptr noundef nonnull %resB, i32 noundef %3, i32 noundef %inc, ptr noundef %len, ptr noundef nonnull %status)
  br label %return

sw.bb38:                                          ; preds = %if.else, %if.else, %if.else
  store i32 17, ptr %status, align 4
  br label %return

return:                                           ; preds = %if.else, %sw.bb38, %entry, %lor.lhs.false, %if.then5, %sw.bb34, %sw.bb21, %sw.bb10, %sw.bb, %if.then2
  %retval.0 = phi ptr [ null, %if.then2 ], [ null, %if.then5 ], [ %call37, %sw.bb34 ], [ %call33, %sw.bb21 ], [ %call20, %sw.bb10 ], [ %call.i, %sw.bb ], [ null, %lor.lhs.false ], [ null, %entry ], [ null, %sw.bb38 ], [ null, %if.else ]
  ret ptr %retval.0
}